target datalayout = "e-m:e-p270:32:32-p271:32:32-p272:64:64-i64:64-i128:128-f80:128-n8:16:32:64-S128"
target triple = "x86_64-pc-linux-gnu"

%"class.std::shared_ptr" = type { %"class.std::__shared_ptr" }
%"class.std::__shared_ptr" = type { ptr, %"class.std::__shared_count" }
%"class.std::__shared_count" = type { ptr }
%"class.absl::debian2::optional" = type { %"class.absl::debian2::optional_internal::optional_data" }
%"class.absl::debian2::optional_internal::optional_data" = type { %"class.absl::debian2::optional_internal::optional_data_base" }
%"class.absl::debian2::optional_internal::optional_data_base" = type { %"class.absl::debian2::optional_internal::optional_data_dtor_base" }
%"class.absl::debian2::optional_internal::optional_data_dtor_base" = type { i8, %union.anon.20 }
%union.anon.20 = type { i8 }
%"class.open_spiel::euchre::EuchreState" = type { %"class.open_spiel::State.base", i8, i8, i32, i32, i32, i32, i32, i32, i32, i32, i32, i32, i32, i32, %"class.absl::debian2::optional", i32, %"class.std::vector.24", i32, i32, i32, i32, %"struct.std::array", %"struct.std::array.33", %"struct.std::array.33", %"class.std::vector.39" }
%"class.open_spiel::State.base" = type <{ ptr, %"class.std::shared_ptr", i32, i32, %"class.std::vector", i32 }>
%"class.std::vector" = type { %"struct.std::_Vector_base" }
%"struct.std::_Vector_base" = type { %"struct.std::_Vector_base<open_spiel::State::PlayerAction, std::allocator<open_spiel::State::PlayerAction>>::_Vector_impl" }
%"struct.std::_Vector_base<open_spiel::State::PlayerAction, std::allocator<open_spiel::State::PlayerAction>>::_Vector_impl" = type { %"struct.std::_Vector_base<open_spiel::State::PlayerAction, std::allocator<open_spiel::State::PlayerAction>>::_Vector_impl_data" }
%"struct.std::_Vector_base<open_spiel::State::PlayerAction, std::allocator<open_spiel::State::PlayerAction>>::_Vector_impl_data" = type { ptr, ptr, ptr }
%"class.std::vector.24" = type { %"struct.std::_Bvector_base" }
%"struct.std::_Bvector_base" = type { %"struct.std::_Bvector_base<std::allocator<bool>>::_Bvector_impl" }
%"struct.std::_Bvector_base<std::allocator<bool>>::_Bvector_impl" = type { %"struct.std::_Bvector_base<std::allocator<bool>>::_Bvector_impl_data" }
%"struct.std::_Bvector_base<std::allocator<bool>>::_Bvector_impl_data" = type { %"struct.std::_Bit_iterator", %"struct.std::_Bit_iterator", ptr }
%"struct.std::_Bit_iterator" = type { %"struct.std::_Bit_iterator_base.base", [4 x i8] }
%"struct.std::_Bit_iterator_base.base" = type <{ ptr, i32 }>
%"struct.std::array" = type { [5 x %"class.open_spiel::euchre::Trick"] }
%"class.open_spiel::euchre::Trick" = type { i32, i32, i32, i8, i32, i32, %"class.std::vector.28" }
%"class.std::vector.28" = type { %"struct.std::_Vector_base.29" }
%"struct.std::_Vector_base.29" = type { %"struct.std::_Vector_base<int, std::allocator<int>>::_Vector_impl" }
%"struct.std::_Vector_base<int, std::allocator<int>>::_Vector_impl" = type { %"struct.std::_Vector_base<int, std::allocator<int>>::_Vector_impl_data" }
%"struct.std::_Vector_base<int, std::allocator<int>>::_Vector_impl_data" = type { ptr, ptr, ptr }
%"struct.std::array.33" = type { [24 x %"class.absl::debian2::optional.34"] }
%"class.absl::debian2::optional.34" = type { %"class.absl::debian2::optional_internal::optional_data.35" }
%"class.absl::debian2::optional_internal::optional_data.35" = type { %"class.absl::debian2::optional_internal::optional_data_base.36" }
%"class.absl::debian2::optional_internal::optional_data_base.36" = type { %"class.absl::debian2::optional_internal::optional_data_dtor_base.37" }
%"class.absl::debian2::optional_internal::optional_data_dtor_base.37" = type { i8, %union.anon.38 }
%union.anon.38 = type { i32 }
%"class.std::vector.39" = type { %"struct.std::_Vector_base.40" }
%"struct.std::_Vector_base.40" = type { %"struct.std::_Vector_base<double, std::allocator<double>>::_Vector_impl" }
%"struct.std::_Vector_base<double, std::allocator<double>>::_Vector_impl" = type { %"struct.std::_Vector_base<double, std::allocator<double>>::_Vector_impl_data" }
%"struct.std::_Vector_base<double, std::allocator<double>>::_Vector_impl_data" = type { ptr, ptr, ptr }

; Function Attrs: mustprogress nounwind uwtable
define linkonce_odr void @_ZN4absl7debian217optional_internal23optional_data_dtor_baseIiLb1EEC2IJiEEENS0_10in_place_tEDpOT_(ptr noundef nonnull align 4 dereferenceable(8) %0, ptr noundef nonnull align 4 dereferenceable(4) %1) unnamed_addr #5 comdat align 2 {
  %3 = alloca ptr, align 8
  %4 = alloca ptr, align 8
  store ptr %0, ptr %3, align 8
  store ptr %1, ptr %4, align 8
  %5 = load ptr, ptr %3, align 8
  %6 = getelementptr inbounds nuw %"class.absl::debian2::optional_internal::optional_data_dtor_base.37", ptr %5, i32 0, i32 0
  store i8 1, ptr %6, align 4
  %7 = getelementptr inbounds nuw %"class.absl::debian2::optional_internal::optional_data_dtor_base.37", ptr %5, i32 0, i32 1
  %8 = load ptr, ptr %4, align 8
  %9 = call noundef nonnull align 4 dereferenceable(4) ptr @_ZN4absl7debian27forwardIiEEOT_RNSt16remove_referenceIS2_E4typeE(ptr noundef nonnull align 4 dereferenceable(4) %8) #3
  %10 = load i32, ptr %9, align 4
  store i32 %10, ptr %7, align 4
  ret void
}

; Function Attrs: mustprogress uwtable
define linkonce_odr void @_ZN4absl7debian217optional_internal18optional_data_baseIiECI2NS1_23optional_data_dtor_baseIiLb1EEEIJiEEENS0_10in_place_tEDpOT_(ptr noundef nonnull align 4 dereferenceable(8) %0, ptr noundef nonnull align 4 dereferenceable(4) %1) unnamed_addr #4 comdat align 2 {
  %3 = alloca ptr, align 8
  %4 = alloca ptr, align 8
  store ptr %0, ptr %3, align 8
  store ptr %1, ptr %4, align 8
  %5 = load ptr, ptr %3, align 8
  %6 = load ptr, ptr %4, align 8
  call void @_ZN4absl7debian217optional_internal23optional_data_dtor_baseIiLb1EEC2IJiEEENS0_10in_place_tEDpOT_(ptr noundef nonnull align 4 dereferenceable(8) %5, ptr noundef nonnull align 4 dereferenceable(4) %6)
  ret void
}

; Function Attrs: mustprogress nounwind uwtable
define linkonce_odr noundef nonnull align 4 dereferenceable(8) ptr @_ZNSt14__array_traitsIN4absl7debian28optionalIiEELm24EE6_S_refERA24_KS3_m(ptr noundef nonnull align 4 dereferenceable(192) %0, i64 noundef %1) #5 comdat align 2 {
  %3 = alloca ptr, align 8
  %4 = alloca i64, align 8
  store ptr %0, ptr %3, align 8
  store i64 %1, ptr %4, align 8
  %5 = load ptr, ptr %3, align 8
  %6 = load i64, ptr %4, align 8
  %7 = getelementptr inbounds [24 x %"class.absl::debian2::optional.34"], ptr %5, i64 0, i64 %6
  ret ptr %7
}

; Function Attrs: mustprogress uwtable
define linkonce_odr void @_ZN4absl7debian217optional_internal13optional_dataIiLb1EECI2NS1_23optional_data_dtor_baseIiLb1EEEIJiEEENS0_10in_place_tEDpOT_(ptr noundef nonnull align 4 dereferenceable(8) %0, ptr noundef nonnull align 4 dereferenceable(4) %1) unnamed_addr #4 comdat align 2 {
  %3 = alloca ptr, align 8
  %4 = alloca ptr, align 8
  store ptr %0, ptr %3, align 8
  store ptr %1, ptr %4, align 8
  %5 = load ptr, ptr %3, align 8
  %6 = load ptr, ptr %4, align 8
  call void @_ZN4absl7debian217optional_internal18optional_data_baseIiECI2NS1_23optional_data_dtor_baseIiLb1EEEIJiEEENS0_10in_place_tEDpOT_(ptr noundef nonnull align 4 dereferenceable(8) %5, ptr noundef nonnull align 4 dereferenceable(4) %6)
  ret void
}

; Function Attrs: mustprogress nounwind uwtable
define linkonce_odr noundef nonnull align 4 dereferenceable(4) ptr @_ZN4absl7debian27forwardIiEEOT_RNSt16remove_referenceIS2_E4typeE(ptr noundef nonnull align 4 dereferenceable(4) %0) #5 comdat {
  %2 = alloca ptr, align 8
  store ptr %0, ptr %2, align 8
  %3 = load ptr, ptr %2, align 8
  ret ptr %3
}

; Function Attrs: mustprogress nounwind uwtable
define linkonce_odr noundef nonnull align 4 dereferenceable(8) ptr @_ZNSt5arrayIN4absl7debian28optionalIiEELm24EEixEm(ptr noundef nonnull align 4 dereferenceable(192) %0, i64 noundef %1) #5 comdat align 2 {
  %3 = alloca ptr, align 8
  %4 = alloca i64, align 8
  store ptr %0, ptr %3, align 8
  store i64 %1, ptr %4, align 8
  %5 = load ptr, ptr %3, align 8
  %6 = getelementptr inbounds nuw %"struct.std::array.33", ptr %5, i32 0, i32 0
  %7 = load i64, ptr %4, align 8
  %8 = call noundef nonnull align 4 dereferenceable(8) ptr @_ZNSt14__array_traitsIN4absl7debian28optionalIiEELm24EE6_S_refERA24_KS3_m(ptr noundef nonnull align 4 dereferenceable(192) %6, i64 noundef %7) #3
  ret ptr %8
}

; Function Attrs: mustprogress uwtable
define linkonce_odr void @_ZN4absl7debian28optionalIiEC2IiTnNSt9enable_ifIXsr4absl11conjunctionINS0_8negationISt7is_sameINS0_10in_place_tENSt5decayIT_E4typeEEEENS5_IS6_IS2_SB_EEESt14is_convertibleIOS9_iESt16is_constructibleIiJSH_EEEE5valueEbE4typeELb0EEESH_(ptr noundef nonnull align 4 dereferenceable(8) %0, ptr noundef nonnull align 4 dereferenceable(4) %1) unnamed_addr #4 comdat align 2 {
  %3 = alloca ptr, align 8
  %4 = alloca ptr, align 8
  store ptr %0, ptr %3, align 8
  store ptr %1, ptr %4, align 8
  %5 = load ptr, ptr %3, align 8
  %6 = load ptr, ptr %4, align 8
  %7 = call noundef nonnull align 4 dereferenceable(4) ptr @_ZN4absl7debian27forwardIiEEOT_RNSt16remove_referenceIS2_E4typeE(ptr noundef nonnull align 4 dereferenceable(4) %6) #3
  call void @_ZN4absl7debian217optional_internal13optional_dataIiLb1EECI2NS1_23optional_data_dtor_baseIiLb1EEEIJiEEENS0_10in_place_tEDpOT_(ptr noundef nonnull align 4 dereferenceable(8) %5, ptr noundef nonnull align 4 dereferenceable(4) %7)
  ret void
}

; Function Attrs: mustprogress uwtable
define void @_ZN10open_spiel6euchre11EuchreState15ApplyDealActionEi(ptr noundef nonnull align 8 dereferenceable(824) %0, i32 noundef %1) #4 align 2 {
  %3 = alloca ptr, align 8
  %4 = alloca i32, align 4
  %5 = alloca %"class.absl::debian2::optional.34", align 4
  %6 = alloca i32, align 4
  store ptr %0, ptr %3, align 8
  store i32 %1, ptr %4, align 4
  %7 = load ptr, ptr %3, align 8
  %8 = getelementptr inbounds nuw %"class.open_spiel::euchre::EuchreState", ptr %7, i32 0, i32 3
  %9 = load i32, ptr %8, align 8
  %10 = icmp eq i32 %9, 20
  br i1 %10, label %11, label %25

11:                                               ; preds = %2
  %12 = getelementptr inbounds nuw %"class.open_spiel::euchre::EuchreState", ptr %7, i32 0, i32 23
  %13 = getelementptr inbounds nuw %"class.open_spiel::euchre::EuchreState", ptr %7, i32 0, i32 24
  call void @llvm.memcpy.p0.p0.i64(ptr align 8 %13, ptr align 8 %12, i64 192, i1 false)
  %14 = load i32, ptr %4, align 4
  %15 = getelementptr inbounds nuw %"class.open_spiel::euchre::EuchreState", ptr %7, i32 0, i32 6
  store i32 %14, ptr %15, align 4
  %16 = getelementptr inbounds nuw %"class.open_spiel::euchre::EuchreState", ptr %7, i32 0, i32 3
  %17 = load i32, ptr %16, align 8
  %18 = add nsw i32 %17, 1
  store i32 %18, ptr %16, align 8
  %19 = getelementptr inbounds nuw %"class.open_spiel::euchre::EuchreState", ptr %7, i32 0, i32 21
  store i32 2, ptr %19, align 4
  %20 = getelementptr inbounds nuw %"class.open_spiel::euchre::EuchreState", ptr %7, i32 0, i32 20
  %21 = load i32, ptr %20, align 8
  %22 = add nsw i32 %21, 1
  %23 = srem i32 %22, 4
  %24 = getelementptr inbounds nuw %"class.open_spiel::euchre::EuchreState", ptr %7, i32 0, i32 19
  store i32 %23, ptr %24, align 4
  br label %39

25:                                               ; preds = %2
  %26 = getelementptr inbounds nuw %"class.open_spiel::euchre::EuchreState", ptr %7, i32 0, i32 20
  %27 = load i32, ptr %26, align 8
  %28 = getelementptr inbounds nuw %"class.open_spiel::euchre::EuchreState", ptr %7, i32 0, i32 3
  %29 = load i32, ptr %28, align 8
  %30 = add nsw i32 %27, %29
  %31 = srem i32 %30, 4
  store i32 %31, ptr %6, align 4
  call void @_ZN4absl7debian28optionalIiEC2IiTnNSt9enable_ifIXsr4absl11conjunctionINS0_8negationISt7is_sameINS0_10in_place_tENSt5decayIT_E4typeEEEENS5_IS6_IS2_SB_EEESt14is_convertibleIOS9_iESt16is_constructibleIiJSH_EEEE5valueEbE4typeELb0EEESH_(ptr noundef nonnull align 4 dereferenceable(8) %5, ptr noundef nonnull align 4 dereferenceable(4) %6)
  %32 = getelementptr inbounds nuw %"class.open_spiel::euchre::EuchreState", ptr %7, i32 0, i32 23
  %33 = load i32, ptr %4, align 4
  %34 = sext i32 %33 to i64
  %35 = call noundef nonnull align 4 dereferenceable(8) ptr @_ZNSt5arrayIN4absl7debian28optionalIiEELm24EEixEm(ptr noundef nonnull align 4 dereferenceable(192) %32, i64 noundef %34) #3
  call void @llvm.memcpy.p0.p0.i64(ptr align 4 %35, ptr align 4 %5, i64 8, i1 false)
  %36 = getelementptr inbounds nuw %"class.open_spiel::euchre::EuchreState", ptr %7, i32 0, i32 3
  %37 = load i32, ptr %36, align 8
  %38 = add nsw i32 %37, 1
  store i32 %38, ptr %36, align 8
  br label %39

39:                                               ; preds = %25, %11
  ret void
}