; Function Attrs: mustprogress nofree norecurse nosync nounwind willreturn memory(argmem: readwrite) uwtable
define void @_ZN10open_spiel6euchre11EuchreState15ApplyDealActionEi(ptr noundef nonnull align 8 captures(none) dereferenceable(824) %0, i32 noundef %1) local_unnamed_addr #8 align 2 {
  %3 = getelementptr inbounds nuw i8, ptr %0, i64 64
  %4 = load i32, ptr %3, align 8
  %5 = icmp eq i32 %4, 20
  br i1 %5, label %6, label %16

6:                                                ; preds = %2
  %7 = getelementptr inbounds nuw i8, ptr %0, i64 416
  %8 = getelementptr inbounds nuw i8, ptr %0, i64 608
  tail call void @llvm.memcpy.p0.p0.i64(ptr noundef nonnull align 8 dereferenceable(192) %8, ptr noundef nonnull align 8 dereferenceable(192) %7, i64 192, i1 false)
  %9 = getelementptr inbounds nuw i8, ptr %0, i64 76
  store i32 %1, ptr %9, align 4
  %10 = getelementptr inbounds nuw i8, ptr %0, i64 172
  store i32 2, ptr %10, align 4
  %11 = getelementptr inbounds nuw i8, ptr %0, i64 168
  %12 = load i32, ptr %11, align 8
  %13 = add nsw i32 %12, 1
  %14 = srem i32 %13, 4
  %15 = getelementptr inbounds nuw i8, ptr %0, i64 164
  store i32 %14, ptr %15, align 4
  br label %26

16:                                               ; preds = %2
  %17 = getelementptr inbounds nuw i8, ptr %0, i64 168
  %18 = load i32, ptr %17, align 8
  %19 = add nsw i32 %18, %4
  %20 = srem i32 %19, 4
  %21 = getelementptr inbounds nuw i8, ptr %0, i64 416
  %22 = sext i32 %1 to i64
  %23 = getelementptr inbounds [24 x %"class.absl::debian2::optional.34"], ptr %21, i64 0, i64 %22
  %.sroa.22.0.insert.ext = zext i32 %20 to i64
  %.sroa.22.0.insert.shift = shl nuw i64 %.sroa.22.0.insert.ext, 32
  %.sroa.0.0.insert.insert = or disjoint i64 %.sroa.22.0.insert.shift, 1
  store i64 %.sroa.0.0.insert.insert, ptr %23, align 8
  %24 = load i32, ptr %3, align 8
  %25 = add nsw i32 %24, 1
  br label %26

26:                                               ; preds = %16, %6
  %.sink = phi i32 [ 21, %6 ], [ %25, %16 ]
  store i32 %.sink, ptr %3, align 8
  ret void
}